target datalayout = "e-m:e-p270:32:32-p271:32:32-p272:64:64-i64:64-i128:128-f80:128-n8:16:32:64-S128"
target triple = "x86_64-pc-linux-gnu"

%struct.__loadu_si128 = type { <2 x i64> }
%struct.__storeu_si128 = type { <2 x i64> }

; Function Attrs: alwaysinline nounwind uwtable
define internal <2 x i64> @_mm_madd_epi16(<2 x i64> noundef %0, <2 x i64> noundef %1) #3 {
  %3 = alloca <2 x i64>, align 16
  %4 = alloca <2 x i64>, align 16
  store <2 x i64> %0, ptr %3, align 16, !tbaa !11
  store <2 x i64> %1, ptr %4, align 16, !tbaa !11
  %5 = load <2 x i64>, ptr %3, align 16, !tbaa !11
  %6 = bitcast <2 x i64> %5 to <8 x i16>
  %7 = load <2 x i64>, ptr %4, align 16, !tbaa !11
  %8 = bitcast <2 x i64> %7 to <8 x i16>
  %9 = call <4 x i32> @llvm.x86.sse2.pmadd.wd(<8 x i16> %6, <8 x i16> %8)
  %10 = bitcast <4 x i32> %9 to <2 x i64>
  ret <2 x i64> %10
}

; Function Attrs: alwaysinline nounwind uwtable
define internal <2 x i64> @_mm_unpackhi_epi8(<2 x i64> noundef %0, <2 x i64> noundef %1) #3 {
  %3 = alloca <2 x i64>, align 16
  %4 = alloca <2 x i64>, align 16
  store <2 x i64> %0, ptr %3, align 16, !tbaa !11
  store <2 x i64> %1, ptr %4, align 16, !tbaa !11
  %5 = load <2 x i64>, ptr %3, align 16, !tbaa !11
  %6 = bitcast <2 x i64> %5 to <16 x i8>
  %7 = load <2 x i64>, ptr %4, align 16, !tbaa !11
  %8 = bitcast <2 x i64> %7 to <16 x i8>
  %9 = shufflevector <16 x i8> %6, <16 x i8> %8, <16 x i32> <i32 8, i32 24, i32 9, i32 25, i32 10, i32 26, i32 11, i32 27, i32 12, i32 28, i32 13, i32 29, i32 14, i32 30, i32 15, i32 31>
  %10 = bitcast <16 x i8> %9 to <2 x i64>
  ret <2 x i64> %10
}

; Function Attrs: alwaysinline nounwind uwtable
define internal <2 x i64> @_mm_unpacklo_epi8(<2 x i64> noundef %0, <2 x i64> noundef %1) #3 {
  %3 = alloca <2 x i64>, align 16
  %4 = alloca <2 x i64>, align 16
  store <2 x i64> %0, ptr %3, align 16, !tbaa !11
  store <2 x i64> %1, ptr %4, align 16, !tbaa !11
  %5 = load <2 x i64>, ptr %3, align 16, !tbaa !11
  %6 = bitcast <2 x i64> %5 to <16 x i8>
  %7 = load <2 x i64>, ptr %4, align 16, !tbaa !11
  %8 = bitcast <2 x i64> %7 to <16 x i8>
  %9 = shufflevector <16 x i8> %6, <16 x i8> %8, <16 x i32> <i32 0, i32 16, i32 1, i32 17, i32 2, i32 18, i32 3, i32 19, i32 4, i32 20, i32 5, i32 21, i32 6, i32 22, i32 7, i32 23>
  %10 = bitcast <16 x i8> %9 to <2 x i64>
  ret <2 x i64> %10
}

; Function Attrs: alwaysinline nounwind uwtable
define internal <2 x i64> @_mm_or_si128(<2 x i64> noundef %0, <2 x i64> noundef %1) #3 {
  %3 = alloca <2 x i64>, align 16
  %4 = alloca <2 x i64>, align 16
  store <2 x i64> %0, ptr %3, align 16, !tbaa !11
  store <2 x i64> %1, ptr %4, align 16, !tbaa !11
  %5 = load <2 x i64>, ptr %3, align 16, !tbaa !11
  %6 = load <2 x i64>, ptr %4, align 16, !tbaa !11
  %7 = or <2 x i64> %5, %6
  ret <2 x i64> %7
}

; Function Attrs: alwaysinline nounwind uwtable
define internal <2 x i64> @_mm_subs_epu8(<2 x i64> noundef %0, <2 x i64> noundef %1) #3 {
  %3 = alloca <2 x i64>, align 16
  %4 = alloca <2 x i64>, align 16
  store <2 x i64> %0, ptr %3, align 16, !tbaa !11
  store <2 x i64> %1, ptr %4, align 16, !tbaa !11
  %5 = load <2 x i64>, ptr %3, align 16, !tbaa !11
  %6 = bitcast <2 x i64> %5 to <16 x i8>
  %7 = load <2 x i64>, ptr %4, align 16, !tbaa !11
  %8 = bitcast <2 x i64> %7 to <16 x i8>
  %9 = call <16 x i8> @llvm.usub.sat.v16i8(<16 x i8> %6, <16 x i8> %8)
  %10 = bitcast <16 x i8> %9 to <2 x i64>
  ret <2 x i64> %10
}

; Function Attrs: alwaysinline nounwind uwtable
define internal void @_mm_storeu_si128(ptr noundef %0, <2 x i64> noundef %1) #3 {
  %3 = alloca ptr, align 8
  %4 = alloca <2 x i64>, align 16
  store ptr %0, ptr %3, align 8, !tbaa !3
  store <2 x i64> %1, ptr %4, align 16, !tbaa !11
  %5 = load <2 x i64>, ptr %4, align 16, !tbaa !11
  %6 = load ptr, ptr %3, align 8, !tbaa !3
  %7 = getelementptr inbounds nuw %struct.__storeu_si128, ptr %6, i32 0, i32 0
  store <2 x i64> %5, ptr %7, align 1, !tbaa !11
  ret void
}

; Function Attrs: alwaysinline nounwind uwtable
define internal <2 x i64> @_mm_add_epi32(<2 x i64> noundef %0, <2 x i64> noundef %1) #3 {
  %3 = alloca <2 x i64>, align 16
  %4 = alloca <2 x i64>, align 16
  store <2 x i64> %0, ptr %3, align 16, !tbaa !11
  store <2 x i64> %1, ptr %4, align 16, !tbaa !11
  %5 = load <2 x i64>, ptr %3, align 16, !tbaa !11
  %6 = bitcast <2 x i64> %5 to <4 x i32>
  %7 = load <2 x i64>, ptr %4, align 16, !tbaa !11
  %8 = bitcast <2 x i64> %7 to <4 x i32>
  %9 = add <4 x i32> %6, %8
  %10 = bitcast <4 x i32> %9 to <2 x i64>
  ret <2 x i64> %10
}

; Function Attrs: inlinehint nounwind uwtable
define internal void @SubtractAndAccumulate_SSE2(<2 x i64> noundef %0, <2 x i64> noundef %1, ptr noundef %2) #9 {
  %4 = alloca <2 x i64>, align 16
  %5 = alloca <2 x i64>, align 16
  %6 = alloca ptr, align 8
  %7 = alloca <2 x i64>, align 16
  %8 = alloca <2 x i64>, align 16
  %9 = alloca <2 x i64>, align 16
  %10 = alloca <2 x i64>, align 16
  %11 = alloca <2 x i64>, align 16
  %12 = alloca <2 x i64>, align 16
  %13 = alloca <2 x i64>, align 16
  %14 = alloca <2 x i64>, align 16
  store <2 x i64> %0, ptr %4, align 16, !tbaa !11
  store <2 x i64> %1, ptr %5, align 16, !tbaa !11
  store ptr %2, ptr %6, align 8, !tbaa !3
  call void @llvm.lifetime.start.p0(i64 16, ptr %7) #11
  %15 = load <2 x i64>, ptr %4, align 16, !tbaa !11
  %16 = load <2 x i64>, ptr %5, align 16, !tbaa !11
  %17 = call <2 x i64> @_mm_subs_epu8(<2 x i64> noundef %15, <2 x i64> noundef %16)
  store <2 x i64> %17, ptr %7, align 16, !tbaa !11
  call void @llvm.lifetime.start.p0(i64 16, ptr %8) #11
  %18 = load <2 x i64>, ptr %5, align 16, !tbaa !11
  %19 = load <2 x i64>, ptr %4, align 16, !tbaa !11
  %20 = call <2 x i64> @_mm_subs_epu8(<2 x i64> noundef %18, <2 x i64> noundef %19)
  store <2 x i64> %20, ptr %8, align 16, !tbaa !11
  call void @llvm.lifetime.start.p0(i64 16, ptr %9) #11
  %21 = load <2 x i64>, ptr %7, align 16, !tbaa !11
  %22 = load <2 x i64>, ptr %8, align 16, !tbaa !11
  %23 = call <2 x i64> @_mm_or_si128(<2 x i64> noundef %21, <2 x i64> noundef %22)
  store <2 x i64> %23, ptr %9, align 16, !tbaa !11
  call void @llvm.lifetime.start.p0(i64 16, ptr %10) #11
  %24 = call <2 x i64> @_mm_setzero_si128()
  store <2 x i64> %24, ptr %10, align 16, !tbaa !11
  call void @llvm.lifetime.start.p0(i64 16, ptr %11) #11
  %25 = load <2 x i64>, ptr %9, align 16, !tbaa !11
  %26 = load <2 x i64>, ptr %10, align 16, !tbaa !11
  %27 = call <2 x i64> @_mm_unpacklo_epi8(<2 x i64> noundef %25, <2 x i64> noundef %26)
  store <2 x i64> %27, ptr %11, align 16, !tbaa !11
  call void @llvm.lifetime.start.p0(i64 16, ptr %12) #11
  %28 = load <2 x i64>, ptr %9, align 16, !tbaa !11
  %29 = load <2 x i64>, ptr %10, align 16, !tbaa !11
  %30 = call <2 x i64> @_mm_unpackhi_epi8(<2 x i64> noundef %28, <2 x i64> noundef %29)
  store <2 x i64> %30, ptr %12, align 16, !tbaa !11
  call void @llvm.lifetime.start.p0(i64 16, ptr %13) #11
  %31 = load <2 x i64>, ptr %11, align 16, !tbaa !11
  %32 = load <2 x i64>, ptr %11, align 16, !tbaa !11
  %33 = call <2 x i64> @_mm_madd_epi16(<2 x i64> noundef %31, <2 x i64> noundef %32)
  store <2 x i64> %33, ptr %13, align 16, !tbaa !11
  call void @llvm.lifetime.start.p0(i64 16, ptr %14) #11
  %34 = load <2 x i64>, ptr %12, align 16, !tbaa !11
  %35 = load <2 x i64>, ptr %12, align 16, !tbaa !11
  %36 = call <2 x i64> @_mm_madd_epi16(<2 x i64> noundef %34, <2 x i64> noundef %35)
  store <2 x i64> %36, ptr %14, align 16, !tbaa !11
  %37 = load <2 x i64>, ptr %13, align 16, !tbaa !11
  %38 = load <2 x i64>, ptr %14, align 16, !tbaa !11
  %39 = call <2 x i64> @_mm_add_epi32(<2 x i64> noundef %37, <2 x i64> noundef %38)
  %40 = load ptr, ptr %6, align 8, !tbaa !3
  store <2 x i64> %39, ptr %40, align 16, !tbaa !11
  call void @llvm.lifetime.end.p0(i64 16, ptr %14) #11
  call void @llvm.lifetime.end.p0(i64 16, ptr %13) #11
  call void @llvm.lifetime.end.p0(i64 16, ptr %12) #11
  call void @llvm.lifetime.end.p0(i64 16, ptr %11) #11
  call void @llvm.lifetime.end.p0(i64 16, ptr %10) #11
  call void @llvm.lifetime.end.p0(i64 16, ptr %9) #11
  call void @llvm.lifetime.end.p0(i64 16, ptr %8) #11
  call void @llvm.lifetime.end.p0(i64 16, ptr %7) #11
  ret void
}

; Function Attrs: alwaysinline nounwind uwtable
define internal <2 x i64> @_mm_loadu_si128(ptr noundef %0) #3 {
  %2 = alloca ptr, align 8
  store ptr %0, ptr %2, align 8, !tbaa !3
  %3 = load ptr, ptr %2, align 8, !tbaa !3
  %4 = getelementptr inbounds nuw %struct.__loadu_si128, ptr %3, i32 0, i32 0
  %5 = load <2 x i64>, ptr %4, align 1, !tbaa !11
  ret <2 x i64> %5
}

; Function Attrs: alwaysinline nounwind uwtable
define internal <2 x i64> @_mm_setzero_si128() #3 {
  %1 = alloca <2 x i64>, align 16
  store <2 x i64> zeroinitializer, ptr %1, align 16, !tbaa !11
  %2 = load <2 x i64>, ptr %1, align 16, !tbaa !11
  ret <2 x i64> %2
}

; Function Attrs: inlinehint nounwind uwtable
define internal i32 @SSE_16xN_SSE2(ptr noalias noundef %0, ptr noalias noundef %1, i32 noundef %2) #9 {
  %4 = alloca ptr, align 8
  %5 = alloca ptr, align 8
  %6 = alloca i32, align 4
  %7 = alloca <2 x i64>, align 16
  %8 = alloca [4 x i32], align 16
  %9 = alloca i32, align 4
  %10 = alloca <2 x i64>, align 16
  %11 = alloca <2 x i64>, align 16
  %12 = alloca <2 x i64>, align 16
  %13 = alloca <2 x i64>, align 16
  %14 = alloca <2 x i64>, align 16
  %15 = alloca <2 x i64>, align 16
  store ptr %0, ptr %4, align 8, !tbaa !7
  store ptr %1, ptr %5, align 8, !tbaa !7
  store i32 %2, ptr %6, align 4, !tbaa !9
  call void @llvm.lifetime.start.p0(i64 16, ptr %7) #11
  %16 = call <2 x i64> @_mm_setzero_si128()
  store <2 x i64> %16, ptr %7, align 16, !tbaa !11
  call void @llvm.lifetime.start.p0(i64 16, ptr %8) #11
  call void @llvm.lifetime.start.p0(i64 4, ptr %9) #11
  store i32 0, ptr %9, align 4, !tbaa !9
  br label %17

17:                                               ; preds = %47, %3
  %18 = load i32, ptr %9, align 4, !tbaa !9
  %19 = load i32, ptr %6, align 4, !tbaa !9
  %20 = icmp slt i32 %18, %19
  br i1 %20, label %21, label %50

21:                                               ; preds = %17
  call void @llvm.lifetime.start.p0(i64 16, ptr %10) #11
  %22 = load ptr, ptr %4, align 8, !tbaa !7
  %23 = getelementptr inbounds i8, ptr %22, i64 0
  %24 = call <2 x i64> @_mm_loadu_si128(ptr noundef %23)
  store <2 x i64> %24, ptr %10, align 16, !tbaa !11
  call void @llvm.lifetime.start.p0(i64 16, ptr %11) #11
  %25 = load ptr, ptr %5, align 8, !tbaa !7
  %26 = getelementptr inbounds i8, ptr %25, i64 0
  %27 = call <2 x i64> @_mm_loadu_si128(ptr noundef %26)
  store <2 x i64> %27, ptr %11, align 16, !tbaa !11
  call void @llvm.lifetime.start.p0(i64 16, ptr %12) #11
  %28 = load ptr, ptr %4, align 8, !tbaa !7
  %29 = getelementptr inbounds i8, ptr %28, i64 32
  %30 = call <2 x i64> @_mm_loadu_si128(ptr noundef %29)
  store <2 x i64> %30, ptr %12, align 16, !tbaa !11
  call void @llvm.lifetime.start.p0(i64 16, ptr %13) #11
  %31 = load ptr, ptr %5, align 8, !tbaa !7
  %32 = getelementptr inbounds i8, ptr %31, i64 32
  %33 = call <2 x i64> @_mm_loadu_si128(ptr noundef %32)
  store <2 x i64> %33, ptr %13, align 16, !tbaa !11
  call void @llvm.lifetime.start.p0(i64 16, ptr %14) #11
  call void @llvm.lifetime.start.p0(i64 16, ptr %15) #11
  %34 = load <2 x i64>, ptr %10, align 16, !tbaa !11
  %35 = load <2 x i64>, ptr %11, align 16, !tbaa !11
  call void @SubtractAndAccumulate_SSE2(<2 x i64> noundef %34, <2 x i64> noundef %35, ptr noundef %14)
  %36 = load <2 x i64>, ptr %12, align 16, !tbaa !11
  %37 = load <2 x i64>, ptr %13, align 16, !tbaa !11
  call void @SubtractAndAccumulate_SSE2(<2 x i64> noundef %36, <2 x i64> noundef %37, ptr noundef %15)
  %38 = load <2 x i64>, ptr %7, align 16, !tbaa !11
  %39 = load <2 x i64>, ptr %14, align 16, !tbaa !11
  %40 = load <2 x i64>, ptr %15, align 16, !tbaa !11
  %41 = call <2 x i64> @_mm_add_epi32(<2 x i64> noundef %39, <2 x i64> noundef %40)
  %42 = call <2 x i64> @_mm_add_epi32(<2 x i64> noundef %38, <2 x i64> noundef %41)
  store <2 x i64> %42, ptr %7, align 16, !tbaa !11
  %43 = load ptr, ptr %4, align 8, !tbaa !7
  %44 = getelementptr inbounds i8, ptr %43, i64 64
  store ptr %44, ptr %4, align 8, !tbaa !7
  %45 = load ptr, ptr %5, align 8, !tbaa !7
  %46 = getelementptr inbounds i8, ptr %45, i64 64
  store ptr %46, ptr %5, align 8, !tbaa !7
  call void @llvm.lifetime.end.p0(i64 16, ptr %15) #11
  call void @llvm.lifetime.end.p0(i64 16, ptr %14) #11
  call void @llvm.lifetime.end.p0(i64 16, ptr %13) #11
  call void @llvm.lifetime.end.p0(i64 16, ptr %12) #11
  call void @llvm.lifetime.end.p0(i64 16, ptr %11) #11
  call void @llvm.lifetime.end.p0(i64 16, ptr %10) #11
  br label %47

47:                                               ; preds = %21
  %48 = load i32, ptr %9, align 4, !tbaa !9
  %49 = add nsw i32 %48, 1
  store i32 %49, ptr %9, align 4, !tbaa !9
  br label %17, !llvm.loop !38

50:                                               ; preds = %17
  %51 = getelementptr inbounds [4 x i32], ptr %8, i64 0, i64 0
  %52 = load <2 x i64>, ptr %7, align 16, !tbaa !11
  call void @_mm_storeu_si128(ptr noundef %51, <2 x i64> noundef %52)
  %53 = getelementptr inbounds [4 x i32], ptr %8, i64 0, i64 3
  %54 = load i32, ptr %53, align 4, !tbaa !9
  %55 = getelementptr inbounds [4 x i32], ptr %8, i64 0, i64 2
  %56 = load i32, ptr %55, align 8, !tbaa !9
  %57 = add nsw i32 %54, %56
  %58 = getelementptr inbounds [4 x i32], ptr %8, i64 0, i64 1
  %59 = load i32, ptr %58, align 4, !tbaa !9
  %60 = add nsw i32 %57, %59
  %61 = getelementptr inbounds [4 x i32], ptr %8, i64 0, i64 0
  %62 = load i32, ptr %61, align 16, !tbaa !9
  %63 = add nsw i32 %60, %62
  call void @llvm.lifetime.end.p0(i64 4, ptr %9) #11
  call void @llvm.lifetime.end.p0(i64 16, ptr %8) #11
  call void @llvm.lifetime.end.p0(i64 16, ptr %7) #11
  ret i32 %63
}

; Function Attrs: nounwind uwtable
define internal i32 @SSE16x16_SSE2(ptr noalias noundef %0, ptr noalias noundef %1) #0 {
  %3 = alloca ptr, align 8
  %4 = alloca ptr, align 8
  store ptr %0, ptr %3, align 8, !tbaa !7
  store ptr %1, ptr %4, align 8, !tbaa !7
  %5 = load ptr, ptr %3, align 8, !tbaa !7
  %6 = load ptr, ptr %4, align 8, !tbaa !7
  %7 = call i32 @SSE_16xN_SSE2(ptr noundef %5, ptr noundef %6, i32 noundef 8)
  ret i32 %7
}